target datalayout = "e-m:e-p270:32:32-p271:32:32-p272:64:64-i64:64-i128:128-f80:128-n8:16:32:64-S128"
target triple = "x86_64-pc-linux-gnu"

%union.imath_half_uif = type { i32 }

; Function Attrs: mustprogress nounwind uwtable
define void @_Z9printBitsPcf(ptr noundef %0, float noundef %1) #9 {
  %3 = alloca ptr, align 8
  %4 = alloca float, align 4
  %5 = alloca %union.imath_half_uif, align 4
  %6 = alloca i32, align 4
  %7 = alloca i32, align 4
  store ptr %0, ptr %3, align 8, !tbaa !29
  store float %1, ptr %4, align 4, !tbaa !8
  call void @llvm.lifetime.start.p0(i64 4, ptr %5) #3
  %8 = load float, ptr %4, align 4, !tbaa !8
  store float %8, ptr %5, align 4, !tbaa !25
  call void @llvm.lifetime.start.p0(i64 4, ptr %6) #3
  store i32 31, ptr %6, align 4, !tbaa !21
  call void @llvm.lifetime.start.p0(i64 4, ptr %7) #3
  store i32 0, ptr %7, align 4, !tbaa !21
  br label %9

9:                                                ; preds = %36, %2
  %10 = load i32, ptr %6, align 4, !tbaa !21
  %11 = icmp sge i32 %10, 0
  br i1 %11, label %13, label %12

12:                                               ; preds = %9
  call void @llvm.lifetime.end.p0(i64 4, ptr %7) #3
  call void @llvm.lifetime.end.p0(i64 4, ptr %6) #3
  br label %41

13:                                               ; preds = %9
  %14 = load i32, ptr %5, align 4, !tbaa !25
  %15 = load i32, ptr %6, align 4, !tbaa !21
  %16 = lshr i32 %14, %15
  %17 = and i32 %16, 1
  %18 = icmp ne i32 %17, 0
  %19 = select i1 %18, i8 49, i8 48
  %20 = load ptr, ptr %3, align 8, !tbaa !29
  %21 = load i32, ptr %7, align 4, !tbaa !21
  %22 = sext i32 %21 to i64
  %23 = getelementptr inbounds i8, ptr %20, i64 %22
  store i8 %19, ptr %23, align 1, !tbaa !25
  %24 = load i32, ptr %6, align 4, !tbaa !21
  %25 = icmp eq i32 %24, 31
  br i1 %25, label %29, label %26

26:                                               ; preds = %13
  %27 = load i32, ptr %6, align 4, !tbaa !21
  %28 = icmp eq i32 %27, 23
  br i1 %28, label %29, label %35

29:                                               ; preds = %26, %13
  %30 = load ptr, ptr %3, align 8, !tbaa !29
  %31 = load i32, ptr %7, align 4, !tbaa !21
  %32 = add nsw i32 %31, 1
  store i32 %32, ptr %7, align 4, !tbaa !21
  %33 = sext i32 %32 to i64
  %34 = getelementptr inbounds i8, ptr %30, i64 %33
  store i8 32, ptr %34, align 1, !tbaa !25
  br label %35

35:                                               ; preds = %29, %26
  br label %36

36:                                               ; preds = %35
  %37 = load i32, ptr %6, align 4, !tbaa !21
  %38 = add nsw i32 %37, -1
  store i32 %38, ptr %6, align 4, !tbaa !21
  %39 = load i32, ptr %7, align 4, !tbaa !21
  %40 = add nsw i32 %39, 1
  store i32 %40, ptr %7, align 4, !tbaa !21
  br label %9, !llvm.loop !32

41:                                               ; preds = %12
  %42 = load ptr, ptr %3, align 8, !tbaa !29
  %43 = getelementptr inbounds i8, ptr %42, i64 34
  store i8 0, ptr %43, align 1, !tbaa !25
  call void @llvm.lifetime.end.p0(i64 4, ptr %5) #3
  ret void
}