; Function Attrs: mustprogress nofree norecurse nosync nounwind memory(argmem: write) uwtable
define void @_Z9printBitsPcf(ptr noundef writeonly captures(none) %0, float noundef %1) local_unnamed_addr #5 {
  %3 = bitcast float %1 to i32
  br label %6

4:                                                ; preds = %17
  %5 = getelementptr inbounds nuw i8, ptr %0, i64 34
  store i8 0, ptr %5, align 1, !tbaa !8
  ret void

6:                                                ; preds = %2, %17
  %.014 = phi i32 [ 0, %2 ], [ %19, %17 ]
  %.01213 = phi i32 [ 31, %2 ], [ %18, %17 ]
  %7 = shl nuw i32 1, %.01213
  %8 = and i32 %7, %3
  %.not = icmp eq i32 %8, 0
  %9 = select i1 %.not, i8 48, i8 49
  %10 = sext i32 %.014 to i64
  %11 = getelementptr inbounds i8, ptr %0, i64 %10
  store i8 %9, ptr %11, align 1, !tbaa !8
  %12 = and i32 %.01213, 2147483639
  %or.cond = icmp eq i32 %12, 23
  br i1 %or.cond, label %13, label %17

13:                                               ; preds = %6
  %14 = add nsw i32 %.014, 1
  %15 = sext i32 %14 to i64
  %16 = getelementptr inbounds i8, ptr %0, i64 %15
  store i8 32, ptr %16, align 1, !tbaa !8
  br label %17

17:                                               ; preds = %13, %6
  %.1 = phi i32 [ %14, %13 ], [ %.014, %6 ]
  %18 = add nsw i32 %.01213, -1
  %19 = add nsw i32 %.1, 1
  %.not15 = icmp eq i32 %.01213, 0
  br i1 %.not15, label %4, label %6, !llvm.loop !31
}